; Function Attrs: mustprogress nounwind uwtable
define dso_local noundef zeroext i1 @_ZNK4llvm3rdf17TargetOperandInfo12isClobberingERKNS_12MachineInstrEj(ptr nonnull readnone align 8 captures(none) %0, ptr noundef nonnull align 8 dereferenceable(70) %1, i32 noundef %2) unnamed_addr #0 align 2 {
  %4 = getelementptr inbounds nuw i8, ptr %1, i64 32
  %5 = load ptr, ptr %4, align 8
  %6 = zext i32 %2 to i64
  %7 = getelementptr inbounds nuw %"class.llvm::MachineOperand", ptr %5, i64 %6
  %8 = load i32, ptr %7, align 8
  %9 = and i32 %8, 255
  %10 = icmp eq i32 %9, 12
  br i1 %10, label %29, label %11

11:                                               ; preds = %3
  %12 = getelementptr inbounds nuw i8, ptr %1, i64 44
  %13 = load i32, ptr %12, align 4
  %14 = and i32 %13, 12
  %15 = icmp eq i32 %14, 0
  %16 = and i32 %13, 4
  %17 = icmp ne i32 %16, 0
  %or.cond.i.i = or i1 %15, %17
  br i1 %or.cond.i.i, label %18, label %_ZNK4llvm12MachineInstr6isCallENS0_9QueryTypeE.exit

18:                                               ; preds = %11
  %19 = getelementptr inbounds nuw i8, ptr %1, i64 16
  %20 = load ptr, ptr %19, align 8
  %21 = getelementptr inbounds nuw i8, ptr %20, i64 16
  %22 = load i64, ptr %21, align 8
  %23 = and i64 %22, 128
  %.not = icmp eq i64 %23, 0
  br i1 %.not, label %28, label %25

_ZNK4llvm12MachineInstr6isCallENS0_9QueryTypeE.exit: ; preds = %11
  %24 = tail call noundef zeroext i1 @_ZNK4llvm12MachineInstr19hasPropertyInBundleEmNS0_9QueryTypeE(ptr noundef nonnull align 8 dereferenceable(70) %1, i64 noundef 128, i32 noundef 1) #22
  br i1 %24, label %_ZNK4llvm12MachineInstr6isCallENS0_9QueryTypeE.exit._crit_edge, label %28

_ZNK4llvm12MachineInstr6isCallENS0_9QueryTypeE.exit._crit_edge: ; preds = %_ZNK4llvm12MachineInstr6isCallENS0_9QueryTypeE.exit
  %.pre = load i32, ptr %7, align 8
  br label %25

25:                                               ; preds = %_ZNK4llvm12MachineInstr6isCallENS0_9QueryTypeE.exit._crit_edge, %18
  %26 = phi i32 [ %.pre, %_ZNK4llvm12MachineInstr6isCallENS0_9QueryTypeE.exit._crit_edge ], [ %8, %18 ]
  %27 = and i32 %26, 83886080
  %or.cond = icmp eq i32 %27, 83886080
  br i1 %or.cond, label %29, label %28

28:                                               ; preds = %18, %25, %_ZNK4llvm12MachineInstr6isCallENS0_9QueryTypeE.exit
  br label %29

29:                                               ; preds = %25, %3, %28
  %.0 = phi i1 [ false, %28 ], [ true, %3 ], [ true, %25 ]
  ret i1 %.0
}